target datalayout = "e-m:e-p270:32:32-p271:32:32-p272:64:64-i64:64-i128:128-f80:128-n8:16:32:64-S128"
target triple = "x86_64-pc-linux-gnu"

%class.QFont = type <{ %class.QExplicitlySharedDataPointer, i32, [4 x i8] }>
%class.QExplicitlySharedDataPointer = type { ptr }
%class.PrintDialog = type <{ %class.QDialog, ptr, %class.QPrinter, ptr, ptr, ptr, ptr, %class.QFont, %class.QFont, ptr, %struct.print_args_t, %struct.print_stream_ops, %struct.print_stream, i32, i8, [3 x i8] }>
%class.QDialog = type { %class.QWidget }
%class.QWidget = type { %class.QObject, %class.QPaintDevice.base, ptr }
%class.QObject = type { ptr, %class.QScopedPointer }
%class.QScopedPointer = type { ptr }
%class.QPaintDevice.base = type <{ ptr, i16 }>
%class.QPrinter = type { %class.QPagedPaintDevice, %class.QScopedPointer.0 }
%class.QPagedPaintDevice = type { %class.QPaintDevice.base, ptr }
%class.QScopedPointer.0 = type { ptr }
%struct.print_args_t = type { ptr, i32, i32, ptr, ptr, %struct.packet_range_tag, i32, i32, i32, i32, i32, i32 }
%struct.packet_range_tag = type { i32, i32, i32, i32, ptr, i32, ptr, i32, ptr, i32, i32, i32, i32, i32, i32, i32, i32, i32, i32, i32, i32, i32, i32, i32, i32, i32, i32, i32, i32, i32, i32, i32, i32, i32, i32, i32, ptr, ptr, ptr, ptr, ptr, ptr, ptr, ptr, i32, i32 }
%struct.print_stream_ops = type { ptr, ptr, ptr, ptr, ptr, ptr, ptr }
%struct.print_stream = type { ptr, ptr }
%class.Ui_PrintDialog = type { ptr, ptr, ptr, ptr, ptr, ptr, ptr, ptr, ptr, ptr }

; Function Attrs: mustprogress uwtable
define void @_ZN11PrintDialog13checkValidityEv(ptr noundef nonnull align 8 dereferenceable(525) %0) #0 align 2 {
  %2 = alloca ptr, align 8
  %3 = alloca i8, align 1
  store ptr %0, ptr %2, align 8
  %4 = load ptr, ptr %2, align 8
  store i8 1, ptr %3, align 1
  %5 = getelementptr inbounds %class.PrintDialog, ptr %4, i32 0, i32 1
  %6 = load ptr, ptr %5, align 8
  %7 = getelementptr inbounds %class.Ui_PrintDialog, ptr %6, i32 0, i32 8
  %8 = load ptr, ptr %7, align 8
  %9 = call noundef zeroext i1 @_ZN19PacketRangeGroupBox7isValidEv(ptr noundef nonnull align 8 dereferenceable(60) %8)
  br i1 %9, label %11, label %10

10:                                               ; preds = %1
  store i8 0, ptr %3, align 1
  br label %11

11:                                               ; preds = %10, %1
  %12 = getelementptr inbounds %class.PrintDialog, ptr %4, i32 0, i32 1
  %13 = load ptr, ptr %12, align 8
  %14 = getelementptr inbounds %class.Ui_PrintDialog, ptr %13, i32 0, i32 3
  %15 = load ptr, ptr %14, align 8
  %16 = call noundef zeroext i1 @_ZN20PacketFormatGroupBox14summaryEnabledEv(ptr noundef nonnull align 8 dereferenceable(48) %15)
  br i1 %16, label %30, label %17

17:                                               ; preds = %11
  %18 = getelementptr inbounds %class.PrintDialog, ptr %4, i32 0, i32 1
  %19 = load ptr, ptr %18, align 8
  %20 = getelementptr inbounds %class.Ui_PrintDialog, ptr %19, i32 0, i32 3
  %21 = load ptr, ptr %20, align 8
  %22 = call noundef zeroext i1 @_ZN20PacketFormatGroupBox14detailsEnabledEv(ptr noundef nonnull align 8 dereferenceable(48) %21)
  br i1 %22, label %30, label %23

23:                                               ; preds = %17
  %24 = getelementptr inbounds %class.PrintDialog, ptr %4, i32 0, i32 1
  %25 = load ptr, ptr %24, align 8
  %26 = getelementptr inbounds %class.Ui_PrintDialog, ptr %25, i32 0, i32 3
  %27 = load ptr, ptr %26, align 8
  %28 = call noundef zeroext i1 @_ZN20PacketFormatGroupBox12bytesEnabledEv(ptr noundef nonnull align 8 dereferenceable(48) %27)
  br i1 %28, label %30, label %29

29:                                               ; preds = %23
  store i8 0, ptr %3, align 1
  br label %30

30:                                               ; preds = %29, %23, %17, %11
  %31 = getelementptr inbounds %class.PrintDialog, ptr %4, i32 0, i32 6
  %32 = load ptr, ptr %31, align 8
  %33 = load i8, ptr %3, align 1
  %34 = trunc i8 %33 to i1
  call void @_ZN7QWidget10setEnabledEb(ptr noundef nonnull align 8 dereferenceable(40) %32, i1 noundef zeroext %34)
  %35 = getelementptr inbounds %class.PrintDialog, ptr %4, i32 0, i32 5
  %36 = load ptr, ptr %35, align 8
  call void @_ZN19QPrintPreviewWidget13updatePreviewEv(ptr noundef nonnull align 8 dereferenceable(40) %36)
  ret void
}