; Function Attrs: mustprogress uwtable
define void @_ZN11PrintDialog13checkValidityEv(ptr nocapture noundef nonnull readonly align 8 dereferenceable(525) %0) local_unnamed_addr #0 align 2 {
  %2 = getelementptr inbounds i8, ptr %0, i64 40
  %3 = load ptr, ptr %2, align 8
  %4 = getelementptr inbounds i8, ptr %3, i64 64
  %5 = load ptr, ptr %4, align 8
  %6 = tail call noundef zeroext i1 @_ZN19PacketRangeGroupBox7isValidEv(ptr noundef nonnull align 8 dereferenceable(60) %5)
  %7 = load ptr, ptr %2, align 8
  %8 = getelementptr inbounds i8, ptr %7, i64 24
  %9 = load ptr, ptr %8, align 8
  %10 = tail call noundef zeroext i1 @_ZN20PacketFormatGroupBox14summaryEnabledEv(ptr noundef nonnull align 8 dereferenceable(48) %9)
  br i1 %10, label %22, label %11

11:                                               ; preds = %1
  %12 = load ptr, ptr %2, align 8
  %13 = getelementptr inbounds i8, ptr %12, i64 24
  %14 = load ptr, ptr %13, align 8
  %15 = tail call noundef zeroext i1 @_ZN20PacketFormatGroupBox14detailsEnabledEv(ptr noundef nonnull align 8 dereferenceable(48) %14)
  br i1 %15, label %22, label %16

16:                                               ; preds = %11
  %17 = load ptr, ptr %2, align 8
  %18 = getelementptr inbounds i8, ptr %17, i64 24
  %19 = load ptr, ptr %18, align 8
  %20 = tail call noundef zeroext i1 @_ZN20PacketFormatGroupBox12bytesEnabledEv(ptr noundef nonnull align 8 dereferenceable(48) %19)
  %21 = and i1 %6, %20
  br label %22

22:                                               ; preds = %16, %11, %1
  %.1 = phi i1 [ %6, %1 ], [ %6, %11 ], [ %21, %16 ]
  %23 = getelementptr inbounds i8, ptr %0, i64 104
  %24 = load ptr, ptr %23, align 8
  tail call void @_ZN7QWidget10setEnabledEb(ptr noundef nonnull align 8 dereferenceable(40) %24, i1 noundef zeroext %.1)
  %25 = getelementptr inbounds i8, ptr %0, i64 96
  %26 = load ptr, ptr %25, align 8
  tail call void @_ZN19QPrintPreviewWidget13updatePreviewEv(ptr noundef nonnull align 8 dereferenceable(40) %26)
  ret void
}